target datalayout = "e-m:e-p270:32:32-p271:32:32-p272:64:64-i64:64-i128:128-f80:128-n8:16:32:64-S128"
target triple = "x86_64-unknown-linux-gnu"

%struct.QGuestAllocator = type { i32, i64, i64, i32, ptr, ptr }
%struct.MemBlock = type { %union.anon, i64, i64 }
%union.anon = type { %struct.QTailQLink }
%struct.QTailQLink = type { ptr, ptr }

@stderr = external global ptr, align 8
@.str = private unnamed_addr constant [46 x i8] c"guest malloc leak @ 0x%016lx; size 0x%016lx.\0A\00", align 1
@.str.1 = private unnamed_addr constant [43 x i8] c"../qemu/tests/qtest/libqos/libqos-malloc.c\00", align 1
@__func__.alloc_destroy = private unnamed_addr constant [14 x i8] c"alloc_destroy\00", align 1
@.str.2 = private unnamed_addr constant [25 x i8] c"Free list is corrupted.\0A\00", align 1

; Function Attrs: nounwind sspstrong uwtable
define dso_local void @alloc_destroy(ptr noundef %allocator) #0 {
entry:
  %allocator.addr = alloca ptr, align 8
  %node = alloca ptr, align 8
  %tmp = alloca ptr, align 8
  %mask = alloca i32, align 4
  store ptr %allocator, ptr %allocator.addr, align 8
  %0 = load ptr, ptr %allocator.addr, align 8
  %used = getelementptr inbounds %struct.QGuestAllocator, ptr %0, i32 0, i32 4
  %1 = load ptr, ptr %used, align 8
  %2 = load ptr, ptr %1, align 8
  store ptr %2, ptr %node, align 8
  br label %for.cond

for.cond:                                         ; preds = %for.inc, %entry
  %3 = load ptr, ptr %node, align 8
  %tobool = icmp ne ptr %3, null
  br i1 %tobool, label %land.rhs, label %land.end

land.rhs:                                         ; preds = %for.cond
  %4 = load ptr, ptr %node, align 8
  %MLIST_ENTNAME = getelementptr inbounds %struct.MemBlock, ptr %4, i32 0, i32 0
  %5 = load ptr, ptr %MLIST_ENTNAME, align 8
  store ptr %5, ptr %tmp, align 8
  br label %land.end

land.end:                                         ; preds = %land.rhs, %for.cond
  %6 = phi i1 [ false, %for.cond ], [ true, %land.rhs ]
  br i1 %6, label %for.body, label %for.end

for.body:                                         ; preds = %land.end
  %7 = load ptr, ptr %allocator.addr, align 8
  %opts = getelementptr inbounds %struct.QGuestAllocator, ptr %7, i32 0, i32 0
  %8 = load i32, ptr %opts, align 8
  %and = and i32 %8, 3
  %tobool1 = icmp ne i32 %and, 0
  br i1 %tobool1, label %if.then, label %if.end

if.then:                                          ; preds = %for.body
  %9 = load ptr, ptr @stderr, align 8
  %10 = load ptr, ptr %node, align 8
  %addr = getelementptr inbounds %struct.MemBlock, ptr %10, i32 0, i32 2
  %11 = load i64, ptr %addr, align 8
  %12 = load ptr, ptr %node, align 8
  %size = getelementptr inbounds %struct.MemBlock, ptr %12, i32 0, i32 1
  %13 = load i64, ptr %size, align 8
  %call = call i32 (ptr, ptr, ...) @fprintf(ptr noundef %9, ptr noundef @.str, i64 noundef %11, i64 noundef %13)
  br label %if.end

if.end:                                           ; preds = %if.then, %for.body
  %14 = load ptr, ptr %allocator.addr, align 8
  %opts2 = getelementptr inbounds %struct.QGuestAllocator, ptr %14, i32 0, i32 0
  %15 = load i32, ptr %opts2, align 8
  %and3 = and i32 %15, 2
  %tobool4 = icmp ne i32 %and3, 0
  br i1 %tobool4, label %if.then5, label %if.end6

if.then5:                                         ; preds = %if.end
  br label %do.body

do.body:                                          ; preds = %if.then5
  call void @g_assertion_message_expr(ptr noundef null, ptr noundef @.str.1, i32 noundef 229, ptr noundef @__func__.alloc_destroy, ptr noundef null) #4
  unreachable

do.end:                                           ; No predecessors!
  br label %if.end6

if.end6:                                          ; preds = %do.end, %if.end
  %16 = load ptr, ptr %node, align 8
  call void @g_free(ptr noundef %16)
  br label %for.inc

for.inc:                                          ; preds = %if.end6
  %17 = load ptr, ptr %tmp, align 8
  store ptr %17, ptr %node, align 8
  br label %for.cond, !llvm.loop !5

for.end:                                          ; preds = %land.end
  store i32 6, ptr %mask, align 4
  %18 = load ptr, ptr %allocator.addr, align 8
  %free = getelementptr inbounds %struct.QGuestAllocator, ptr %18, i32 0, i32 5
  %19 = load ptr, ptr %free, align 8
  %20 = load ptr, ptr %19, align 8
  store ptr %20, ptr %node, align 8
  br label %for.cond7

for.cond7:                                        ; preds = %for.inc27, %for.end
  %21 = load ptr, ptr %node, align 8
  %tobool8 = icmp ne ptr %21, null
  br i1 %tobool8, label %land.rhs9, label %land.end11

land.rhs9:                                        ; preds = %for.cond7
  %22 = load ptr, ptr %node, align 8
  %MLIST_ENTNAME10 = getelementptr inbounds %struct.MemBlock, ptr %22, i32 0, i32 0
  %23 = load ptr, ptr %MLIST_ENTNAME10, align 8
  store ptr %23, ptr %tmp, align 8
  br label %land.end11

land.end11:                                       ; preds = %land.rhs9, %for.cond7
  %24 = phi i1 [ false, %for.cond7 ], [ true, %land.rhs9 ]
  br i1 %24, label %for.body12, label %for.end28

for.body12:                                       ; preds = %land.end11
  %25 = load ptr, ptr %allocator.addr, align 8
  %opts13 = getelementptr inbounds %struct.QGuestAllocator, ptr %25, i32 0, i32 0
  %26 = load i32, ptr %opts13, align 8
  %27 = load i32, ptr %mask, align 4
  %and14 = and i32 %26, %27
  %28 = load i32, ptr %mask, align 4
  %cmp = icmp eq i32 %and14, %28
  br i1 %cmp, label %if.then15, label %if.end26

if.then15:                                        ; preds = %for.body12
  %29 = load ptr, ptr %node, align 8
  %addr16 = getelementptr inbounds %struct.MemBlock, ptr %29, i32 0, i32 2
  %30 = load i64, ptr %addr16, align 8
  %31 = load ptr, ptr %allocator.addr, align 8
  %start = getelementptr inbounds %struct.QGuestAllocator, ptr %31, i32 0, i32 1
  %32 = load i64, ptr %start, align 8
  %cmp17 = icmp ne i64 %30, %32
  br i1 %cmp17, label %if.then21, label %lor.lhs.false

lor.lhs.false:                                    ; preds = %if.then15
  %33 = load ptr, ptr %node, align 8
  %size18 = getelementptr inbounds %struct.MemBlock, ptr %33, i32 0, i32 1
  %34 = load i64, ptr %size18, align 8
  %35 = load ptr, ptr %allocator.addr, align 8
  %end = getelementptr inbounds %struct.QGuestAllocator, ptr %35, i32 0, i32 2
  %36 = load i64, ptr %end, align 8
  %37 = load ptr, ptr %allocator.addr, align 8
  %start19 = getelementptr inbounds %struct.QGuestAllocator, ptr %37, i32 0, i32 1
  %38 = load i64, ptr %start19, align 8
  %sub = sub i64 %36, %38
  %cmp20 = icmp ne i64 %34, %sub
  br i1 %cmp20, label %if.then21, label %if.end25

if.then21:                                        ; preds = %lor.lhs.false, %if.then15
  %39 = load ptr, ptr @stderr, align 8
  %call22 = call i32 (ptr, ptr, ...) @fprintf(ptr noundef %39, ptr noundef @.str.2)
  br label %do.body23

do.body23:                                        ; preds = %if.then21
  call void @g_assertion_message_expr(ptr noundef null, ptr noundef @.str.1, i32 noundef 242, ptr noundef @__func__.alloc_destroy, ptr noundef null) #4
  unreachable

do.end24:                                         ; No predecessors!
  br label %if.end25

if.end25:                                         ; preds = %do.end24, %lor.lhs.false
  br label %if.end26

if.end26:                                         ; preds = %if.end25, %for.body12
  %40 = load ptr, ptr %node, align 8
  call void @g_free(ptr noundef %40)
  br label %for.inc27

for.inc27:                                        ; preds = %if.end26
  %41 = load ptr, ptr %tmp, align 8
  store ptr %41, ptr %node, align 8
  br label %for.cond7, !llvm.loop !7

for.end28:                                        ; preds = %land.end11
  %42 = load ptr, ptr %allocator.addr, align 8
  %used29 = getelementptr inbounds %struct.QGuestAllocator, ptr %42, i32 0, i32 4
  %43 = load ptr, ptr %used29, align 8
  call void @g_free(ptr noundef %43)
  %44 = load ptr, ptr %allocator.addr, align 8
  %free30 = getelementptr inbounds %struct.QGuestAllocator, ptr %44, i32 0, i32 5
  %45 = load ptr, ptr %free30, align 8
  call void @g_free(ptr noundef %45)
  ret void
}