; Function Attrs: nounwind sspstrong uwtable
define dso_local void @alloc_destroy(ptr noundef readonly captures(none) %allocator) local_unnamed_addr #0 {
entry:
  %used = getelementptr inbounds nuw i8, ptr %allocator, i64 32
  %0 = load ptr, ptr %used, align 8
  %1 = load ptr, ptr %0, align 8
  %tobool.not21 = icmp eq ptr %1, null
  br i1 %tobool.not21, label %for.end, label %land.rhs

land.rhs:                                         ; preds = %entry, %if.end6
  %node.022 = phi ptr [ %2, %if.end6 ], [ %1, %entry ]
  %2 = load ptr, ptr %node.022, align 8
  %3 = load i32, ptr %allocator, align 8
  %and = and i32 %3, 3
  %tobool1.not = icmp eq i32 %and, 0
  br i1 %tobool1.not, label %if.end, label %if.then

if.then:                                          ; preds = %land.rhs
  %4 = load ptr, ptr @stderr, align 8
  %addr = getelementptr inbounds nuw i8, ptr %node.022, i64 24
  %5 = load i64, ptr %addr, align 8
  %size = getelementptr inbounds nuw i8, ptr %node.022, i64 16
  %6 = load i64, ptr %size, align 8
  %call = tail call i32 (ptr, ptr, ...) @fprintf(ptr noundef %4, ptr noundef nonnull @.str, i64 noundef %5, i64 noundef %6) #9
  %.pre = load i32, ptr %allocator, align 8
  br label %if.end

if.end:                                           ; preds = %if.then, %land.rhs
  %7 = phi i32 [ %.pre, %if.then ], [ %3, %land.rhs ]
  %and3 = and i32 %7, 2
  %tobool4.not = icmp eq i32 %and3, 0
  br i1 %tobool4.not, label %if.end6, label %do.body

do.body:                                          ; preds = %if.end
  tail call void @g_assertion_message_expr(ptr noundef null, ptr noundef nonnull @.str.1, i32 noundef 229, ptr noundef nonnull @__func__.alloc_destroy, ptr noundef null) #10
  unreachable

if.end6:                                          ; preds = %if.end
  tail call void @g_free(ptr noundef nonnull %node.022) #11
  %tobool.not = icmp eq ptr %2, null
  br i1 %tobool.not, label %for.end, label %land.rhs, !llvm.loop !5

for.end:                                          ; preds = %if.end6, %entry
  %free = getelementptr inbounds nuw i8, ptr %allocator, i64 40
  %8 = load ptr, ptr %free, align 8
  %9 = load ptr, ptr %8, align 8
  %tobool8.not23 = icmp eq ptr %9, null
  br i1 %tobool8.not23, label %for.end28, label %land.rhs9.lr.ph

land.rhs9.lr.ph:                                  ; preds = %for.end
  %start = getelementptr inbounds nuw i8, ptr %allocator, i64 8
  %end = getelementptr inbounds nuw i8, ptr %allocator, i64 16
  br label %land.rhs9

land.rhs9:                                        ; preds = %land.rhs9.lr.ph, %if.end26
  %node.124 = phi ptr [ %9, %land.rhs9.lr.ph ], [ %10, %if.end26 ]
  %10 = load ptr, ptr %node.124, align 8
  %11 = load i32, ptr %allocator, align 8
  %and14 = and i32 %11, 6
  %cmp = icmp eq i32 %and14, 6
  br i1 %cmp, label %if.then15, label %if.end26

if.then15:                                        ; preds = %land.rhs9
  %addr16 = getelementptr inbounds nuw i8, ptr %node.124, i64 24
  %12 = load i64, ptr %addr16, align 8
  %13 = load i64, ptr %start, align 8
  %cmp17.not = icmp eq i64 %12, %13
  br i1 %cmp17.not, label %lor.lhs.false, label %if.then21

lor.lhs.false:                                    ; preds = %if.then15
  %size18 = getelementptr inbounds nuw i8, ptr %node.124, i64 16
  %14 = load i64, ptr %size18, align 8
  %15 = load i64, ptr %end, align 8
  %sub = sub i64 %15, %12
  %cmp20.not = icmp eq i64 %14, %sub
  br i1 %cmp20.not, label %if.end26, label %if.then21

if.then21:                                        ; preds = %lor.lhs.false, %if.then15
  %16 = load ptr, ptr @stderr, align 8
  %17 = tail call i64 @fwrite(ptr nonnull @.str.2, i64 24, i64 1, ptr %16) #9
  tail call void @g_assertion_message_expr(ptr noundef null, ptr noundef nonnull @.str.1, i32 noundef 242, ptr noundef nonnull @__func__.alloc_destroy, ptr noundef null) #10
  unreachable

if.end26:                                         ; preds = %lor.lhs.false, %land.rhs9
  tail call void @g_free(ptr noundef nonnull %node.124) #11
  %tobool8.not = icmp eq ptr %10, null
  br i1 %tobool8.not, label %for.end28, label %land.rhs9, !llvm.loop !7

for.end28:                                        ; preds = %if.end26, %for.end
  %18 = load ptr, ptr %used, align 8
  tail call void @g_free(ptr noundef %18) #11
  %19 = load ptr, ptr %free, align 8
  tail call void @g_free(ptr noundef %19) #11
  ret void
}